target datalayout = "e-m:e-p270:32:32-p271:32:32-p272:64:64-i64:64-i128:128-f80:128-n8:16:32:64-S128"
target triple = "x86_64-pc-linux-gnu"

%"class.euf::justification" = type { i32, %union.anon, %union.anon.17 }
%union.anon = type { ptr }
%union.anon.17 = type { ptr }
%class.ptr_vector.7 = type { %class.vector.8 }
%class.vector.8 = type { ptr }
%"class.euf::enode" = type { ptr, i8, i8, i8, i8, i8, i8, i8, i8, i8, i32, i32, i32, i32, i32, i32, %class.ptr_vector.7, ptr, ptr, ptr, ptr, %class.id_var_list, %"class.euf::justification", %"class.euf::justification", i32, i8, %class.approx_set, %class.approx_set, [0 x ptr] }
%class.id_var_list = type { i32, ptr }
%class.approx_set = type { %class.approx_set_tpl }
%class.approx_set_tpl = type { i64 }

; Function Attrs: mustprogress nounwind uwtable
define linkonce_odr hidden void @_ZN3euf5enode7unmark2Ev(ptr noundef nonnull align 8 dereferenceable(176) %0) #6 comdat align 2 {
  %2 = alloca ptr, align 8
  store ptr %0, ptr %2, align 8, !tbaa !15
  %3 = load ptr, ptr %2, align 8
  %4 = getelementptr inbounds nuw %"class.euf::enode", ptr %3, i32 0, i32 2
  store i8 0, ptr %4, align 1, !tbaa !379
  ret void
}

; Function Attrs: mustprogress nounwind uwtable
define linkonce_odr hidden void @_ZN3euf5enode5mark2Ev(ptr noundef nonnull align 8 dereferenceable(176) %0) #6 comdat align 2 {
  %2 = alloca ptr, align 8
  store ptr %0, ptr %2, align 8, !tbaa !15
  %3 = load ptr, ptr %2, align 8
  %4 = getelementptr inbounds nuw %"class.euf::enode", ptr %3, i32 0, i32 2
  store i8 1, ptr %4, align 1, !tbaa !379
  ret void
}

; Function Attrs: mustprogress uwtable
define linkonce_odr hidden void @_ZN3euf5enode13mark2_targetsILb0EEEvv(ptr noundef nonnull align 8 dereferenceable(176) %0) #4 comdat align 2 {
  %2 = alloca ptr, align 8
  %3 = alloca ptr, align 8
  store ptr %0, ptr %2, align 8, !tbaa !15
  %4 = load ptr, ptr %2, align 8
  call void @llvm.lifetime.start.p0(i64 8, ptr %3) #3
  store ptr %4, ptr %3, align 8, !tbaa !15
  br label %5

5:                                                ; preds = %8, %1
  %6 = load ptr, ptr %3, align 8, !tbaa !15
  %7 = icmp ne ptr %6, null
  br i1 %7, label %8, label %13

8:                                                ; preds = %5
  %9 = load ptr, ptr %3, align 8, !tbaa !15
  call void @_ZN3euf5enode7unmark2Ev(ptr noundef nonnull align 8 dereferenceable(176) %9)
  %10 = load ptr, ptr %3, align 8, !tbaa !15
  %11 = getelementptr inbounds nuw %"class.euf::enode", ptr %10, i32 0, i32 19
  %12 = load ptr, ptr %11, align 8, !tbaa !367
  store ptr %12, ptr %3, align 8, !tbaa !15
  br label %5, !llvm.loop !380

13:                                               ; preds = %5
  call void @llvm.lifetime.end.p0(i64 8, ptr %3) #3
  ret void
}

; Function Attrs: mustprogress nounwind uwtable
define linkonce_odr hidden noundef zeroext i1 @_ZN3euf5enode10is_marked2Ev(ptr noundef nonnull align 8 dereferenceable(176) %0) #6 comdat align 2 {
  %2 = alloca ptr, align 8
  store ptr %0, ptr %2, align 8, !tbaa !15
  %3 = load ptr, ptr %2, align 8
  %4 = getelementptr inbounds nuw %"class.euf::enode", ptr %3, i32 0, i32 2
  %5 = load i8, ptr %4, align 1, !tbaa !379, !range !82, !noundef !83
  %6 = trunc i8 %5 to i1
  ret i1 %6
}

; Function Attrs: mustprogress uwtable
define linkonce_odr hidden void @_ZN3euf5enode13mark2_targetsILb1EEEvv(ptr noundef nonnull align 8 dereferenceable(176) %0) #4 comdat align 2 {
  %2 = alloca ptr, align 8
  %3 = alloca ptr, align 8
  store ptr %0, ptr %2, align 8, !tbaa !15
  %4 = load ptr, ptr %2, align 8
  call void @llvm.lifetime.start.p0(i64 8, ptr %3) #3
  store ptr %4, ptr %3, align 8, !tbaa !15
  br label %5

5:                                                ; preds = %8, %1
  %6 = load ptr, ptr %3, align 8, !tbaa !15
  %7 = icmp ne ptr %6, null
  br i1 %7, label %8, label %13

8:                                                ; preds = %5
  %9 = load ptr, ptr %3, align 8, !tbaa !15
  call void @_ZN3euf5enode5mark2Ev(ptr noundef nonnull align 8 dereferenceable(176) %9)
  %10 = load ptr, ptr %3, align 8, !tbaa !15
  %11 = getelementptr inbounds nuw %"class.euf::enode", ptr %10, i32 0, i32 19
  %12 = load ptr, ptr %11, align 8, !tbaa !367
  store ptr %12, ptr %3, align 8, !tbaa !15
  br label %5, !llvm.loop !378

13:                                               ; preds = %5
  call void @llvm.lifetime.end.p0(i64 8, ptr %3) #3
  ret void
}

; Function Attrs: mustprogress uwtable
define hidden noundef ptr @_ZN3euf6egraph8find_lcaEPNS_5enodeES2_(ptr noundef nonnull align 8 dereferenceable(536) %0, ptr noundef %1, ptr noundef %2) #4 align 2 {
  %4 = alloca ptr, align 8
  %5 = alloca ptr, align 8
  %6 = alloca ptr, align 8
  store ptr %0, ptr %4, align 8, !tbaa !3
  store ptr %1, ptr %5, align 8, !tbaa !15
  store ptr %2, ptr %6, align 8, !tbaa !15
  %7 = load ptr, ptr %5, align 8, !tbaa !15
  call void @_ZN3euf5enode13mark2_targetsILb1EEEvv(ptr noundef nonnull align 8 dereferenceable(176) %7)
  br label %8

8:                                                ; preds = %12, %3
  %9 = load ptr, ptr %6, align 8, !tbaa !15
  %10 = call noundef zeroext i1 @_ZN3euf5enode10is_marked2Ev(ptr noundef nonnull align 8 dereferenceable(176) %9)
  %11 = xor i1 %10, true
  br i1 %11, label %12, label %16

12:                                               ; preds = %8
  %13 = load ptr, ptr %6, align 8, !tbaa !15
  %14 = getelementptr inbounds nuw %"class.euf::enode", ptr %13, i32 0, i32 19
  %15 = load ptr, ptr %14, align 8, !tbaa !367
  store ptr %15, ptr %6, align 8, !tbaa !15
  br label %8, !llvm.loop !377

16:                                               ; preds = %8
  %17 = load ptr, ptr %5, align 8, !tbaa !15
  call void @_ZN3euf5enode13mark2_targetsILb0EEEvv(ptr noundef nonnull align 8 dereferenceable(176) %17)
  %18 = load ptr, ptr %6, align 8, !tbaa !15
  ret ptr %18
}