; Function Attrs: mustprogress nofree norecurse nosync nounwind memory(readwrite, inaccessiblemem: none) uwtable
define hidden noundef ptr @_ZN3euf6egraph8find_lcaEPNS_5enodeES2_(ptr noundef nonnull readnone align 8 captures(none) dereferenceable(536) %0, ptr noundef captures(none) %1, ptr noundef readonly captures(ret: address, provenance) %2) local_unnamed_addr #10 align 2 {
  br label %4

4:                                                ; preds = %4, %3
  %.04.i = phi ptr [ %1, %3 ], [ %7, %4 ]
  %5 = getelementptr inbounds nuw i8, ptr %.04.i, i64 9
  store i8 1, ptr %5, align 1, !tbaa !281
  %6 = getelementptr inbounds nuw i8, ptr %.04.i, i64 72
  %7 = load ptr, ptr %6, align 8, !tbaa !263
  %.not.i = icmp eq ptr %7, null
  br i1 %.not.i, label %_ZN3euf5enode13mark2_targetsILb1EEEvv.exit.preheader, label %4, !llvm.loop !282

_ZN3euf5enode13mark2_targetsILb1EEEvv.exit.preheader: ; preds = %4
  %8 = getelementptr inbounds nuw i8, ptr %2, i64 9
  %9 = load i8, ptr %8, align 1, !tbaa !281, !range !109, !noundef !110
  %10 = trunc nuw i8 %9 to i1
  br i1 %10, label %.preheader, label %_ZN3euf5enode13mark2_targetsILb1EEEvv.exit

.preheader:                                       ; preds = %_ZN3euf5enode13mark2_targetsILb1EEEvv.exit, %_ZN3euf5enode13mark2_targetsILb1EEEvv.exit.preheader
  %.0.lcssa = phi ptr [ %2, %_ZN3euf5enode13mark2_targetsILb1EEEvv.exit.preheader ], [ %12, %_ZN3euf5enode13mark2_targetsILb1EEEvv.exit ]
  br label %16

_ZN3euf5enode13mark2_targetsILb1EEEvv.exit:       ; preds = %_ZN3euf5enode13mark2_targetsILb1EEEvv.exit.preheader, %_ZN3euf5enode13mark2_targetsILb1EEEvv.exit
  %.07 = phi ptr [ %12, %_ZN3euf5enode13mark2_targetsILb1EEEvv.exit ], [ %2, %_ZN3euf5enode13mark2_targetsILb1EEEvv.exit.preheader ]
  %11 = getelementptr inbounds nuw i8, ptr %.07, i64 72
  %12 = load ptr, ptr %11, align 8, !tbaa !263
  %13 = getelementptr inbounds nuw i8, ptr %12, i64 9
  %14 = load i8, ptr %13, align 1, !tbaa !281, !range !109, !noundef !110
  %15 = trunc nuw i8 %14 to i1
  br i1 %15, label %.preheader, label %_ZN3euf5enode13mark2_targetsILb1EEEvv.exit, !llvm.loop !283

16:                                               ; preds = %.preheader, %16
  %.04.i5 = phi ptr [ %19, %16 ], [ %1, %.preheader ]
  %17 = getelementptr inbounds nuw i8, ptr %.04.i5, i64 9
  store i8 0, ptr %17, align 1, !tbaa !281
  %18 = getelementptr inbounds nuw i8, ptr %.04.i5, i64 72
  %19 = load ptr, ptr %18, align 8, !tbaa !263
  %.not.i6 = icmp eq ptr %19, null
  br i1 %.not.i6, label %_ZN3euf5enode13mark2_targetsILb0EEEvv.exit, label %16, !llvm.loop !284

_ZN3euf5enode13mark2_targetsILb0EEEvv.exit:       ; preds = %16
  ret ptr %.0.lcssa
}